; Function Attrs: mustprogress nounwind uwtable
define internal noundef zeroext i1 @_ZNK12_GLOBAL__N_130ParsedAttrInfoDisableTailCalls20diagAppertainsToDeclERN5clang4SemaERKNS1_10ParsedAttrEPKNS1_4DeclE(ptr nocapture nonnull readnone align 8 %0, ptr noundef nonnull align 8 dereferenceable(17560) %1, ptr noundef nonnull align 8 dereferenceable(72) %2, ptr nocapture noundef readonly %3) unnamed_addr #0 align 2 {
  %5 = alloca %"class.clang::SemaBase::SemaDiagnosticBuilder", align 8
  %6 = alloca i8, align 1
  %7 = getelementptr inbounds nuw i8, ptr %3, i64 28
  %8 = load i32, ptr %7, align 4
  %9 = and i32 %8, 127
  %switch.tableidx = add nsw i32 %9, -15
  %10 = icmp ult i32 %switch.tableidx, 22
  br i1 %10, label %switch.hole_check, label %11

11:                                               ; preds = %switch.hole_check, %4
  %12 = getelementptr inbounds i8, ptr %1, i64 8
  %13 = getelementptr inbounds nuw i8, ptr %2, i64 16
  %.sroa.0.0.copyload.i.i = load i32, ptr %13, align 8
  call void @_ZN5clang8SemaBase4DiagENS_14SourceLocationEjb(ptr dead_on_unwind nonnull writable sret(%"class.clang::SemaBase::SemaDiagnosticBuilder") align 8 %5, ptr noundef nonnull align 8 dereferenceable(8) %12, i32 %.sroa.0.0.copyload.i.i, i32 noundef 6180, i1 noundef zeroext false) #18
  %14 = call noundef nonnull align 8 dereferenceable(96) ptr @_ZN5clanglsINS_10ParsedAttrEEERKNS_8SemaBase21SemaDiagnosticBuilderES5_RKT_(ptr noundef nonnull align 8 dereferenceable(96) %5, ptr noundef nonnull align 8 dereferenceable(72) %2)
  %15 = getelementptr inbounds nuw i8, ptr %2, i64 28
  %16 = load i32, ptr %15, align 4
  %17 = lshr i32 %16, 25
  %18 = trunc nuw nsw i32 %17 to i8
  %19 = and i8 %18, 1
  store i8 %19, ptr %6, align 1
  %20 = call noundef nonnull align 8 dereferenceable(96) ptr @_ZNK5clang8SemaBase21SemaDiagnosticBuilderlsIbvEERKS1_OT_(ptr noundef nonnull align 8 dereferenceable(96) %14, ptr noundef nonnull align 1 dereferenceable(1) %6)
  %21 = call noundef nonnull align 8 dereferenceable(96) ptr @_ZN5clanglsIA34_cEERKNS_8SemaBase21SemaDiagnosticBuilderES5_RKT_(ptr noundef nonnull align 8 dereferenceable(96) %20, ptr noundef nonnull align 1 dereferenceable(34) @.str.1370)
  call void @_ZN5clang8SemaBase21SemaDiagnosticBuilderD1Ev(ptr noundef nonnull align 8 dereferenceable(96) %5) #18
  br label %switch.lookup

switch.hole_check:                                ; preds = %4
  %switch.shifted = lshr i32 4128769, %switch.tableidx
  %switch.lobit = trunc i32 %switch.shifted to i1
  br i1 %switch.lobit, label %switch.lookup, label %11

switch.lookup:                                    ; preds = %switch.hole_check, %11
  %.0 = phi i1 [ false, %11 ], [ true, %switch.hole_check ]
  ret i1 %.0
}